; ModuleID = '15/1202.c'
source_filename = "15/1202.c"
target datalayout = "e-m:e-p270:32:32-p271:32:32-p272:64:64-i64:64-f80:128-n8:16:32:64-S128"
target triple = "x86_64-pc-linux-gnu"

@.str = private unnamed_addr constant [3 x i8] c"%d\00", align 1

; Function Attrs: noinline nounwind uwtable
define dso_local i32 @main() #0 {
  %1 = alloca i32, align 4
  %2 = alloca i32, align 4
  %3 = alloca i32, align 4
  %4 = alloca i32, align 4
  %5 = alloca i32, align 4
  %6 = alloca i32, align 4
  %7 = alloca i32, align 4
  %8 = alloca [1000 x i32], align 16
  %9 = alloca i32, align 4
  %10 = alloca i32, align 4
  store i32 0, i32* %1, align 4
  store i32 -1, i32* %6, align 4
  store i32 -1, i32* %7, align 4
  %11 = call i32 (i8*, ...) @__isoc99_scanf(i8* getelementptr inbounds ([3 x i8], [3 x i8]* @.str, i64 0, i64 0), i32* %2)
  store i32 1, i32* %9, align 4
  br label %12

12:                                               ; preds = %60, %0
  %13 = load i32, i32* %9, align 4
  %14 = load i32, i32* %2, align 4
  %15 = icmp sle i32 %13, %14
  br i1 %15, label %16, label %63

16:                                               ; preds = %12
  store i32 1, i32* %10, align 4
  br label %17

17:                                               ; preds = %56, %16
  %18 = load i32, i32* %10, align 4
  %19 = load i32, i32* %2, align 4
  %20 = icmp sle i32 %18, %19
  br i1 %20, label %21, label %59

21:                                               ; preds = %17
  %22 = load i32, i32* %10, align 4
  %23 = sext i32 %22 to i64
  %24 = getelementptr inbounds [1000 x i32], [1000 x i32]* %8, i64 0, i64 %23
  %25 = call i32 (i8*, ...) @__isoc99_scanf(i8* getelementptr inbounds ([3 x i8], [3 x i8]* @.str, i64 0, i64 0), i32* %24)
  %26 = load i32, i32* %6, align 4
  %27 = icmp sgt i32 %26, 0
  br i1 %27, label %28, label %40

28:                                               ; preds = %21
  %29 = load i32, i32* %7, align 4
  %30 = icmp sgt i32 %29, 0
  br i1 %30, label %31, label %40

31:                                               ; preds = %28
  %32 = load i32, i32* %10, align 4
  %33 = sext i32 %32 to i64
  %34 = getelementptr inbounds [1000 x i32], [1000 x i32]* %8, i64 0, i64 %33
  %35 = load i32, i32* %34, align 4
  %36 = icmp eq i32 %35, 0
  br i1 %36, label %37, label %40

37:                                               ; preds = %31
  %38 = load i32, i32* %9, align 4
  store i32 %38, i32* %5, align 4
  %39 = load i32, i32* %10, align 4
  store i32 %39, i32* %4, align 4
  br label %40

40:                                               ; preds = %37, %31, %28, %21
  %41 = load i32, i32* %6, align 4
  %42 = icmp slt i32 %41, 0
  br i1 %42, label %43, label %55

43:                                               ; preds = %40
  %44 = load i32, i32* %7, align 4
  %45 = icmp slt i32 %44, 0
  br i1 %45, label %46, label %55

46:                                               ; preds = %43
  %47 = load i32, i32* %10, align 4
  %48 = sext i32 %47 to i64
  %49 = getelementptr inbounds [1000 x i32], [1000 x i32]* %8, i64 0, i64 %48
  %50 = load i32, i32* %49, align 4
  %51 = icmp eq i32 %50, 0
  br i1 %51, label %52, label %55

52:                                               ; preds = %46
  %53 = load i32, i32* %9, align 4
  store i32 %53, i32* %6, align 4
  %54 = load i32, i32* %10, align 4
  store i32 %54, i32* %7, align 4
  br label %55

55:                                               ; preds = %52, %46, %43, %40
  br label %56

56:                                               ; preds = %55
  %57 = load i32, i32* %10, align 4
  %58 = add nsw i32 %57, 1
  store i32 %58, i32* %10, align 4
  br label %17

59:                                               ; preds = %17
  br label %60

60:                                               ; preds = %59
  %61 = load i32, i32* %9, align 4
  %62 = add nsw i32 %61, 1
  store i32 %62, i32* %9, align 4
  br label %12

63:                                               ; preds = %12
  %64 = load i32, i32* %4, align 4
  %65 = load i32, i32* %7, align 4
  %66 = sub nsw i32 %64, %65
  %67 = add nsw i32 %66, 1
  %68 = load i32, i32* %5, align 4
  %69 = load i32, i32* %6, align 4
  %70 = sub nsw i32 %68, %69
  %71 = add nsw i32 %70, 1
  %72 = mul nsw i32 %67, %71
  %73 = load i32, i32* %4, align 4
  %74 = load i32, i32* %7, align 4
  %75 = sub nsw i32 %73, %74
  %76 = add nsw i32 %75, 1
  %77 = mul nsw i32 2, %76
  %78 = sub nsw i32 %72, %77
  %79 = load i32, i32* %5, align 4
  %80 = load i32, i32* %6, align 4
  %81 = sub nsw i32 %79, %80
  %82 = sub nsw i32 %81, 1
  %83 = mul nsw i32 2, %82
  %84 = sub nsw i32 %78, %83
  store i32 %84, i32* %3, align 4
  %85 = load i32, i32* %3, align 4
  %86 = call i32 (i8*, ...) @printf(i8* getelementptr inbounds ([3 x i8], [3 x i8]* @.str, i64 0, i64 0), i32 %85)
  ret i32 0
}

declare dso_local i32 @__isoc99_scanf(i8*, ...) #1

declare dso_local i32 @printf(i8*, ...) #1


!llvm.module.flags = !{!0}
!llvm.ident = !{!1}

!0 = !{i32 1, !"wchar_size", i32 4}
!1 = !{!"clang version 10.0.0-4ubuntu1 "}
